target datalayout = "e-m:e-p270:32:32-p271:32:32-p272:64:64-i64:64-i128:128-f80:128-n8:16:32:64-S128"
target triple = "x86_64-pc-linux-gnu"

; Function Attrs: nounwind uwtable
define i32 @decsub(ptr noundef %0, ptr noundef %1, ptr noundef %2) #0 {
  %4 = alloca i32, align 4
  %5 = alloca ptr, align 8
  %6 = alloca ptr, align 8
  %7 = alloca ptr, align 8
  %8 = alloca i32, align 4
  %9 = alloca i32, align 4
  store ptr %0, ptr %5, align 8
  store ptr %1, ptr %6, align 8
  store ptr %2, ptr %7, align 8
  call void @llvm.lifetime.start.p0(i64 4, ptr %8) #9
  %10 = call ptr @__errno_location() #8
  store i32 0, ptr %10, align 4
  %11 = load ptr, ptr %5, align 8
  %12 = load ptr, ptr %6, align 8
  %13 = load ptr, ptr %7, align 8
  %14 = call i32 @deccall3(ptr noundef %11, ptr noundef %12, ptr noundef %13, ptr noundef @PGTYPESnumeric_sub)
  store i32 %14, ptr %8, align 4
  %15 = load i32, ptr %8, align 4
  %16 = icmp ne i32 %15, 0
  br i1 %16, label %17, label %22

17:                                               ; preds = %3
  %18 = call ptr @__errno_location() #8
  %19 = load i32, ptr %18, align 4
  switch i32 %19, label %21 [
    i32 301, label %20
  ]

20:                                               ; preds = %17
  store i32 -1200, ptr %4, align 4
  store i32 1, ptr %9, align 4
  br label %23

21:                                               ; preds = %17
  store i32 -1201, ptr %4, align 4
  store i32 1, ptr %9, align 4
  br label %23

22:                                               ; preds = %3
  store i32 0, ptr %4, align 4
  store i32 1, ptr %9, align 4
  br label %23

23:                                               ; preds = %22, %21, %20
  call void @llvm.lifetime.end.p0(i64 4, ptr %8) #9
  %24 = load i32, ptr %4, align 4
  ret i32 %24
}